target datalayout = "e-m:e-p270:32:32-p271:32:32-p272:64:64-i64:64-i128:128-f80:128-n8:16:32:64-S128"
target triple = "x86_64-pc-linux-gnu"

%struct.rb_data_type_struct = type { ptr, %struct.anon, ptr, ptr, i64 }
%struct.anon = type { ptr, ptr, ptr, ptr, [1 x ptr] }

@ossl_x509req_type = internal constant %struct.rb_data_type_struct { ptr @.str.21, %struct.anon { ptr null, ptr @ossl_x509req_free, ptr null, ptr null, [1 x ptr] zeroinitializer }, ptr null, ptr null, i64 33 }, align 8
@rb_eRuntimeError = external global i64, align 8
@.str = private unnamed_addr constant [24 x i8] c"Req wasn't initialized!\00", align 1
@dOSSL = external global i64, align 8
@stderr = external global ptr, align 8
@.str.27 = private unnamed_addr constant [13 x i8] c"OSSL_DEBUG: \00", align 1
@.str.28 = private unnamed_addr constant [13 x i8] c"count < 0???\00", align 1
@.str.29 = private unnamed_addr constant [10 x i8] c" [%s:%d]\0A\00", align 1
@.str.30 = private unnamed_addr constant [36 x i8] c"../../../ext/openssl/ossl_x509req.c\00", align 1

; Function Attrs: nounwind sspstrong uwtable
define internal i64 @ossl_x509req_get_attributes(i64 noundef %0) #0 {
  %2 = alloca i64, align 8
  %3 = alloca i64, align 8
  %4 = alloca ptr, align 8
  %5 = alloca i32, align 4
  %6 = alloca i32, align 4
  %7 = alloca ptr, align 8
  %8 = alloca i64, align 8
  %9 = alloca i32, align 4
  store i64 %0, ptr %3, align 8, !tbaa !6
  call void @llvm.lifetime.start.p0(i64 8, ptr %4) #15
  call void @llvm.lifetime.start.p0(i64 4, ptr %5) #15
  call void @llvm.lifetime.start.p0(i64 4, ptr %6) #15
  call void @llvm.lifetime.start.p0(i64 8, ptr %7) #15
  call void @llvm.lifetime.start.p0(i64 8, ptr %8) #15
  br label %10

10:                                               ; preds = %1
  %11 = load i64, ptr %3, align 8, !tbaa !6
  %12 = call ptr @rb_check_typeddata(i64 noundef %11, ptr noundef @ossl_x509req_type)
  store ptr %12, ptr %4, align 8, !tbaa !10
  %13 = load ptr, ptr %4, align 8, !tbaa !10
  %14 = icmp ne ptr %13, null
  br i1 %14, label %17, label %15

15:                                               ; preds = %10
  %16 = load i64, ptr @rb_eRuntimeError, align 8, !tbaa !6
  call void (i64, ptr, ...) @ossl_raise(i64 noundef %16, ptr noundef @.str) #16
  unreachable

17:                                               ; preds = %10
  br label %18

18:                                               ; preds = %17
  br label %19

19:                                               ; preds = %18
  %20 = load ptr, ptr %4, align 8, !tbaa !10
  %21 = call i32 @X509_REQ_get_attr_count(ptr noundef %20)
  store i32 %21, ptr %5, align 4, !tbaa !17
  %22 = load i32, ptr %5, align 4, !tbaa !17
  %23 = icmp slt i32 %22, 0
  br i1 %23, label %24, label %39

24:                                               ; preds = %19
  br label %25

25:                                               ; preds = %24
  %26 = load i64, ptr @dOSSL, align 8, !tbaa !6
  %27 = icmp eq i64 %26, 20
  br i1 %27, label %28, label %35

28:                                               ; preds = %25
  %29 = load ptr, ptr @stderr, align 8, !tbaa !37
  %30 = call i32 (ptr, i32, ptr, ...) @__fprintf_chk(ptr noundef %29, i32 noundef 1, ptr noundef @.str.27)
  %31 = load ptr, ptr @stderr, align 8, !tbaa !37
  %32 = call i32 (ptr, i32, ptr, ...) @__fprintf_chk(ptr noundef %31, i32 noundef 1, ptr noundef @.str.28)
  %33 = load ptr, ptr @stderr, align 8, !tbaa !37
  %34 = call i32 (ptr, i32, ptr, ...) @__fprintf_chk(ptr noundef %33, i32 noundef 1, ptr noundef @.str.29, ptr noundef @.str.30, i32 noundef 364)
  br label %35

35:                                               ; preds = %28, %25
  br label %36

36:                                               ; preds = %35
  br label %37

37:                                               ; preds = %36
  %38 = call i64 @rb_ary_new()
  store i64 %38, ptr %2, align 8
  store i32 1, ptr %9, align 4
  br label %60

39:                                               ; preds = %19
  %40 = load i32, ptr %5, align 4, !tbaa !17
  %41 = sext i32 %40 to i64
  %42 = call i64 @rb_ary_new_capa(i64 noundef %41)
  store i64 %42, ptr %8, align 8, !tbaa !6
  store i32 0, ptr %6, align 4, !tbaa !17
  br label %43

43:                                               ; preds = %55, %39
  %44 = load i32, ptr %6, align 4, !tbaa !17
  %45 = load i32, ptr %5, align 4, !tbaa !17
  %46 = icmp slt i32 %44, %45
  br i1 %46, label %47, label %58

47:                                               ; preds = %43
  %48 = load ptr, ptr %4, align 8, !tbaa !10
  %49 = load i32, ptr %6, align 4, !tbaa !17
  %50 = call ptr @X509_REQ_get_attr(ptr noundef %48, i32 noundef %49)
  store ptr %50, ptr %7, align 8, !tbaa !39
  %51 = load i64, ptr %8, align 8, !tbaa !6
  %52 = load ptr, ptr %7, align 8, !tbaa !39
  %53 = call i64 @ossl_x509attr_new(ptr noundef %52)
  %54 = call i64 @rb_ary_push(i64 noundef %51, i64 noundef %53)
  br label %55

55:                                               ; preds = %47
  %56 = load i32, ptr %6, align 4, !tbaa !17
  %57 = add nsw i32 %56, 1
  store i32 %57, ptr %6, align 4, !tbaa !17
  br label %43, !llvm.loop !41

58:                                               ; preds = %43
  %59 = load i64, ptr %8, align 8, !tbaa !6
  store i64 %59, ptr %2, align 8
  store i32 1, ptr %9, align 4
  br label %60

60:                                               ; preds = %58, %37
  call void @llvm.lifetime.end.p0(i64 8, ptr %8) #15
  call void @llvm.lifetime.end.p0(i64 8, ptr %7) #15
  call void @llvm.lifetime.end.p0(i64 4, ptr %6) #15
  call void @llvm.lifetime.end.p0(i64 4, ptr %5) #15
  call void @llvm.lifetime.end.p0(i64 8, ptr %4) #15
  %61 = load i64, ptr %2, align 8
  ret i64 %61
}