; Function Attrs: nounwind sspstrong uwtable
define internal i64 @ossl_x509req_get_attributes(i64 noundef %0) #0 {
  %2 = tail call ptr @rb_check_typeddata(i64 noundef %0, ptr noundef nonnull @ossl_x509req_type) #5
  %.not = icmp eq ptr %2, null
  br i1 %.not, label %3, label %5

3:                                                ; preds = %1
  %4 = load i64, ptr @rb_eRuntimeError, align 8, !tbaa !6
  tail call void (i64, ptr, ...) @ossl_raise(i64 noundef %4, ptr noundef nonnull @.str) #6
  unreachable

5:                                                ; preds = %1
  %6 = tail call i32 @X509_REQ_get_attr_count(ptr noundef nonnull %2) #5
  %7 = icmp slt i32 %6, 0
  br i1 %7, label %8, label %20

8:                                                ; preds = %5
  %9 = load i64, ptr @dOSSL, align 8, !tbaa !6
  %10 = icmp eq i64 %9, 20
  br i1 %10, label %11, label %18

11:                                               ; preds = %8
  %12 = load ptr, ptr @stderr, align 8, !tbaa !34
  %13 = tail call i32 (ptr, i32, ptr, ...) @__fprintf_chk(ptr noundef %12, i32 noundef 1, ptr noundef nonnull @.str.27) #5
  %14 = load ptr, ptr @stderr, align 8, !tbaa !34
  %15 = tail call i32 (ptr, i32, ptr, ...) @__fprintf_chk(ptr noundef %14, i32 noundef 1, ptr noundef nonnull @.str.28) #5
  %16 = load ptr, ptr @stderr, align 8, !tbaa !34
  %17 = tail call i32 (ptr, i32, ptr, ...) @__fprintf_chk(ptr noundef %16, i32 noundef 1, ptr noundef nonnull @.str.29, ptr noundef nonnull @.str.30, i32 noundef 364) #5
  br label %18

18:                                               ; preds = %11, %8
  %19 = tail call i64 @rb_ary_new() #5
  br label %.loopexit

20:                                               ; preds = %5
  %21 = zext nneg i32 %6 to i64
  %22 = tail call i64 @rb_ary_new_capa(i64 noundef %21) #5
  %.not17 = icmp eq i32 %6, 0
  br i1 %.not17, label %.loopexit, label %.lr.ph

.lr.ph:                                           ; preds = %20, %.lr.ph
  %.01316 = phi i32 [ %26, %.lr.ph ], [ 0, %20 ]
  %23 = tail call ptr @X509_REQ_get_attr(ptr noundef nonnull %2, i32 noundef %.01316) #5
  %24 = tail call i64 @ossl_x509attr_new(ptr noundef %23) #5
  %25 = tail call i64 @rb_ary_push(i64 noundef %22, i64 noundef %24) #5
  %26 = add nuw nsw i32 %.01316, 1
  %exitcond.not = icmp eq i32 %26, %6
  br i1 %exitcond.not, label %.loopexit, label %.lr.ph, !llvm.loop !36

.loopexit:                                        ; preds = %.lr.ph, %20, %18
  %.0 = phi i64 [ %19, %18 ], [ %22, %20 ], [ %22, %.lr.ph ]
  ret i64 %.0
}